; Function Attrs: mustprogress uwtable
define void @_ZN5arrow2io16MemoryMappedFileC1Ev(ptr noundef nonnull align 8 dereferenceable(56) %this) unnamed_addr #0 align 2 personality ptr @__gxx_personality_v0 {
entry:
  %0 = getelementptr inbounds i8, ptr %this, i64 56
  %1 = getelementptr inbounds i8, ptr %this, i64 64
  tail call void @llvm.memset.p0.i64(ptr noundef nonnull align 8 dereferenceable(16) %1, i8 0, i64 16, i1 false)
  store ptr getelementptr inbounds ({ [9 x ptr] }, ptr @_ZTVN5arrow2io13FileInterfaceE, i64 0, i32 0, i64 2), ptr %0, align 8
  %mode_.i = getelementptr inbounds i8, ptr %this, i64 80
  store i32 0, ptr %mode_.i, align 8
  store ptr getelementptr inbounds ({ [7 x ptr] }, ptr @_ZTVN5arrow2io8ReadableE, i64 0, i32 0, i64 2), ptr %this, align 8
  invoke void @_ZN5arrow2io16RandomAccessFileC2Ev(ptr noundef nonnull align 8 dereferenceable(24) %this, ptr noundef nonnull getelementptr inbounds ([18 x ptr], ptr @_ZTTN5arrow2io16MemoryMappedFileE, i64 0, i64 2))
          to label %invoke.cont unwind label %lpad

invoke.cont:                                      ; preds = %entry
  %2 = getelementptr inbounds i8, ptr %this, i64 24
  %3 = getelementptr inbounds i8, ptr %this, i64 32
  %add.ptr7.i = getelementptr inbounds i8, ptr %this, i64 8
  store i32 2, ptr %mode_.i, align 8
  store ptr getelementptr inbounds ({ [29 x ptr], [5 x ptr], [9 x ptr], [5 x ptr], [15 x ptr] }, ptr @_ZTVN5arrow2io16MemoryMappedFileE, i64 0, i32 4, i64 8), ptr %0, align 8
  store ptr getelementptr inbounds ({ [29 x ptr], [5 x ptr], [9 x ptr], [5 x ptr], [15 x ptr] }, ptr @_ZTVN5arrow2io16MemoryMappedFileE, i64 0, i32 0, i64 8), ptr %this, align 8
  store ptr getelementptr inbounds ({ [29 x ptr], [5 x ptr], [9 x ptr], [5 x ptr], [15 x ptr] }, ptr @_ZTVN5arrow2io16MemoryMappedFileE, i64 0, i32 1, i64 2), ptr %add.ptr7.i, align 8
  store ptr getelementptr inbounds ({ [29 x ptr], [5 x ptr], [9 x ptr], [5 x ptr], [15 x ptr] }, ptr @_ZTVN5arrow2io16MemoryMappedFileE, i64 0, i32 2, i64 3), ptr %2, align 8
  store ptr getelementptr inbounds ({ [29 x ptr], [5 x ptr], [9 x ptr], [5 x ptr], [15 x ptr] }, ptr @_ZTVN5arrow2io16MemoryMappedFileE, i64 0, i32 3, i64 2), ptr %3, align 8
  %memory_map_ = getelementptr inbounds i8, ptr %this, i64 40
  tail call void @llvm.memset.p0.i64(ptr noundef nonnull align 8 dereferenceable(16) %memory_map_, i8 0, i64 16, i1 false)
  ret void

lpad:                                             ; preds = %entry
  %4 = landingpad { ptr, i32 }
          cleanup
  tail call void @_ZN5arrow2io13FileInterfaceD2Ev(ptr noundef nonnull align 8 dereferenceable(28) %0) #22
  resume { ptr, i32 } %4
}